; Function Attrs: mustprogress uwtable
define void @ucol_setStrength_75(ptr noundef %coll, i32 noundef %strength) local_unnamed_addr #0 {
entry:
  %status = alloca i32, align 4
  store i32 0, ptr %status, align 4
  %cmp.i = icmp eq ptr %coll, null
  br i1 %cmp.i, label %ucol_setAttribute_75.exit, label %if.end.i

if.end.i:                                         ; preds = %entry
  %vtable.i = load ptr, ptr %coll, align 8
  %vfn.i = getelementptr inbounds i8, ptr %vtable.i, i64 184
  %0 = load ptr, ptr %vfn.i, align 8
  call void %0(ptr noundef nonnull align 8 dereferenceable(8) %coll, i32 noundef 5, i32 noundef %strength, ptr noundef nonnull align 4 dereferenceable(4) %status)
  br label %ucol_setAttribute_75.exit

ucol_setAttribute_75.exit:                        ; preds = %entry, %if.end.i
  ret void
}